
bootrom.elf:     file format elf32-littleriscv


Disassembly of section .isr_vector:

08000000 <isr_vector>:
 8000000:	00c0006f          	j	800000c <start>
 8000004:	0080006f          	j	800000c <start>
 8000008:	00000013          	nop

Disassembly of section .text:

0800000c <start>:
 800000c:	18000117          	auipc	sp,0x18000
 8000010:	1f410113          	addi	sp,sp,500 # 20000200 <ramend>
 8000014:	004000ef          	jal	ra,8000018 <main>

08000018 <main>:
 8000018:	fe010113          	addi	sp,sp,-32
 800001c:	00812e23          	sw	s0,28(sp)
 8000020:	02010413          	addi	s0,sp,32
 8000024:	00100793          	li	a5,1
 8000028:	fef42623          	sw	a5,-20(s0)
 800002c:	300007b7          	lui	a5,0x30000
 8000030:	fec42703          	lw	a4,-20(s0)
 8000034:	00e7a023          	sw	a4,0(a5) # 30000000 <ramend+0xffffe00>
 8000038:	fec42783          	lw	a5,-20(s0)
 800003c:	00179713          	slli	a4,a5,0x1
 8000040:	fec42783          	lw	a5,-20(s0)
 8000044:	0077d793          	srli	a5,a5,0x7
 8000048:	0017f793          	andi	a5,a5,1
 800004c:	00f767b3          	or	a5,a4,a5
 8000050:	fef42623          	sw	a5,-20(s0)
 8000054:	fe042423          	sw	zero,-24(s0)
 8000058:	0100006f          	j	8000068 <main+0x50>
 800005c:	fe842783          	lw	a5,-24(s0)
 8000060:	00178793          	addi	a5,a5,1
 8000064:	fef42423          	sw	a5,-24(s0)
 8000068:	fe842703          	lw	a4,-24(s0)
 800006c:	000f47b7          	lui	a5,0xf4
 8000070:	23f78793          	addi	a5,a5,575 # f423f <isr_vector-0x7f0bdc1>
 8000074:	fee7d4e3          	bge	a5,a4,800005c <main+0x44>
 8000078:	fb5ff06f          	j	800002c <main+0x14>
